target datalayout = "e-m:e-p270:32:32-p271:32:32-p272:64:64-i64:64-i128:128-f80:128-n8:16:32:64-S128"
target triple = "x86_64-pc-linux-gnu"

%struct.redisObject = type { i32, i32, ptr }
%struct.sdshdr8 = type { i8, i8, i8, [0 x i8] }
%struct.sdshdr16 = type <{ i16, i16, i8, [0 x i8] }>
%struct.sdshdr32 = type <{ i32, i32, i8, [0 x i8] }>
%struct.sdshdr64 = type <{ i64, i64, i8, [0 x i8] }>
%struct.zset = type { ptr, ptr }
%struct.zsetopsrc = type { ptr, i32, i32, double, %union.anon }
%union.anon = type { %union._iterset }
%union._iterset = type { %struct.anon.1 }
%struct.anon.1 = type { ptr, ptr, ptr }
%struct.zsetopval = type { i32, [32 x i8], ptr, ptr, i32, i64, double }

@.str.1 = private unnamed_addr constant [9 x i8] c"t_zset.c\00", align 1
@.str.9 = private unnamed_addr constant [28 x i8] c"Unknown sorted set encoding\00", align 1
@.str.39 = private unnamed_addr constant [17 x i8] c"Unsupported type\00", align 1

; Function Attrs: nounwind uwtable
define dso_local ptr @zuiSdsFromValue(ptr noundef %0) #0 {
  %2 = alloca ptr, align 8
  store ptr %0, ptr %2, align 8, !tbaa !45
  %3 = load ptr, ptr %2, align 8, !tbaa !45
  %4 = getelementptr inbounds nuw %struct.zsetopval, ptr %3, i32 0, i32 2
  %5 = load ptr, ptr %4, align 8, !tbaa !181
  %6 = icmp eq ptr %5, null
  br i1 %6, label %7, label %35

7:                                                ; preds = %1
  %8 = load ptr, ptr %2, align 8, !tbaa !45
  %9 = getelementptr inbounds nuw %struct.zsetopval, ptr %8, i32 0, i32 3
  %10 = load ptr, ptr %9, align 8, !tbaa !184
  %11 = icmp ne ptr %10, null
  br i1 %11, label %12, label %23

12:                                               ; preds = %7
  %13 = load ptr, ptr %2, align 8, !tbaa !45
  %14 = getelementptr inbounds nuw %struct.zsetopval, ptr %13, i32 0, i32 3
  %15 = load ptr, ptr %14, align 8, !tbaa !184
  %16 = load ptr, ptr %2, align 8, !tbaa !45
  %17 = getelementptr inbounds nuw %struct.zsetopval, ptr %16, i32 0, i32 4
  %18 = load i32, ptr %17, align 8, !tbaa !185
  %19 = zext i32 %18 to i64
  %20 = call ptr @sdsnewlen(ptr noundef %15, i64 noundef %19)
  %21 = load ptr, ptr %2, align 8, !tbaa !45
  %22 = getelementptr inbounds nuw %struct.zsetopval, ptr %21, i32 0, i32 2
  store ptr %20, ptr %22, align 8, !tbaa !181
  br label %30

23:                                               ; preds = %7
  %24 = load ptr, ptr %2, align 8, !tbaa !45
  %25 = getelementptr inbounds nuw %struct.zsetopval, ptr %24, i32 0, i32 5
  %26 = load i64, ptr %25, align 8, !tbaa !182
  %27 = call ptr @sdsfromlonglong(i64 noundef %26)
  %28 = load ptr, ptr %2, align 8, !tbaa !45
  %29 = getelementptr inbounds nuw %struct.zsetopval, ptr %28, i32 0, i32 2
  store ptr %27, ptr %29, align 8, !tbaa !181
  br label %30

30:                                               ; preds = %23, %12
  %31 = load ptr, ptr %2, align 8, !tbaa !45
  %32 = getelementptr inbounds nuw %struct.zsetopval, ptr %31, i32 0, i32 0
  %33 = load i32, ptr %32, align 8, !tbaa !179
  %34 = or i32 %33, 1
  store i32 %34, ptr %32, align 8, !tbaa !179
  br label %35

35:                                               ; preds = %30, %1
  %36 = load ptr, ptr %2, align 8, !tbaa !45
  %37 = getelementptr inbounds nuw %struct.zsetopval, ptr %36, i32 0, i32 2
  %38 = load ptr, ptr %37, align 8, !tbaa !181
  ret ptr %38
}

; Function Attrs: inlinehint nounwind uwtable
define internal i64 @sdslen(ptr noundef %0) #8 {
  %2 = alloca i64, align 8
  %3 = alloca ptr, align 8
  %4 = alloca i8, align 1
  %5 = alloca i32, align 4
  store ptr %0, ptr %3, align 8, !tbaa !11
  call void @llvm.lifetime.start.p0(i64 1, ptr %4) #12
  %6 = load ptr, ptr %3, align 8, !tbaa !11
  %7 = getelementptr inbounds i8, ptr %6, i64 -1
  %8 = load i8, ptr %7, align 1, !tbaa !86
  store i8 %8, ptr %4, align 1, !tbaa !86
  %9 = load i8, ptr %4, align 1, !tbaa !86
  %10 = zext i8 %9 to i32
  %11 = and i32 %10, 7
  switch i32 %11, label %40 [
    i32 0, label %12
    i32 1, label %17
    i32 2, label %23
    i32 3, label %29
    i32 4, label %35
  ]

12:                                               ; preds = %1
  %13 = load i8, ptr %4, align 1, !tbaa !86
  %14 = zext i8 %13 to i32
  %15 = ashr i32 %14, 3
  %16 = sext i32 %15 to i64
  store i64 %16, ptr %2, align 8
  store i32 1, ptr %5, align 4
  br label %41

17:                                               ; preds = %1
  %18 = load ptr, ptr %3, align 8, !tbaa !11
  %19 = getelementptr inbounds i8, ptr %18, i64 -3
  %20 = getelementptr inbounds nuw %struct.sdshdr8, ptr %19, i32 0, i32 0
  %21 = load i8, ptr %20, align 1, !tbaa !86
  %22 = zext i8 %21 to i64
  store i64 %22, ptr %2, align 8
  store i32 1, ptr %5, align 4
  br label %41

23:                                               ; preds = %1
  %24 = load ptr, ptr %3, align 8, !tbaa !11
  %25 = getelementptr inbounds i8, ptr %24, i64 -5
  %26 = getelementptr inbounds nuw %struct.sdshdr16, ptr %25, i32 0, i32 0
  %27 = load i16, ptr %26, align 1, !tbaa !90
  %28 = zext i16 %27 to i64
  store i64 %28, ptr %2, align 8
  store i32 1, ptr %5, align 4
  br label %41

29:                                               ; preds = %1
  %30 = load ptr, ptr %3, align 8, !tbaa !11
  %31 = getelementptr inbounds i8, ptr %30, i64 -9
  %32 = getelementptr inbounds nuw %struct.sdshdr32, ptr %31, i32 0, i32 0
  %33 = load i32, ptr %32, align 1, !tbaa !5
  %34 = zext i32 %33 to i64
  store i64 %34, ptr %2, align 8
  store i32 1, ptr %5, align 4
  br label %41

35:                                               ; preds = %1
  %36 = load ptr, ptr %3, align 8, !tbaa !11
  %37 = getelementptr inbounds i8, ptr %36, i64 -17
  %38 = getelementptr inbounds nuw %struct.sdshdr64, ptr %37, i32 0, i32 0
  %39 = load i64, ptr %38, align 1, !tbaa !31
  store i64 %39, ptr %2, align 8
  store i32 1, ptr %5, align 4
  br label %41

40:                                               ; preds = %1
  store i64 0, ptr %2, align 8
  store i32 1, ptr %5, align 4
  br label %41

41:                                               ; preds = %40, %35, %29, %23, %17, %12
  call void @llvm.lifetime.end.p0(i64 1, ptr %4) #12
  %42 = load i64, ptr %2, align 8
  ret i64 %42
}

; Function Attrs: nounwind uwtable
define dso_local i32 @zuiFind(ptr noundef %0, ptr noundef %1, ptr noundef %2) #0 {
  %4 = alloca i32, align 4
  %5 = alloca ptr, align 8
  %6 = alloca ptr, align 8
  %7 = alloca ptr, align 8
  %8 = alloca ptr, align 8
  %9 = alloca i64, align 8
  %10 = alloca i32, align 4
  %11 = alloca ptr, align 8
  %12 = alloca ptr, align 8
  store ptr %0, ptr %5, align 8, !tbaa !45
  store ptr %1, ptr %6, align 8, !tbaa !45
  store ptr %2, ptr %7, align 8, !tbaa !105
  %13 = load ptr, ptr %5, align 8, !tbaa !45
  %14 = getelementptr inbounds nuw %struct.zsetopsrc, ptr %13, i32 0, i32 0
  %15 = load ptr, ptr %14, align 8, !tbaa !171
  %16 = icmp eq ptr %15, null
  br i1 %16, label %17, label %18

17:                                               ; preds = %3
  store i32 0, ptr %4, align 4
  br label %127

18:                                               ; preds = %3
  %19 = load ptr, ptr %5, align 8, !tbaa !45
  %20 = getelementptr inbounds nuw %struct.zsetopsrc, ptr %19, i32 0, i32 1
  %21 = load i32, ptr %20, align 8, !tbaa !173
  %22 = icmp eq i32 %21, 2
  br i1 %22, label %23, label %73

23:                                               ; preds = %18
  call void @llvm.lifetime.start.p0(i64 8, ptr %8) #12
  %24 = load ptr, ptr %6, align 8, !tbaa !45
  %25 = getelementptr inbounds nuw %struct.zsetopval, ptr %24, i32 0, i32 2
  %26 = load ptr, ptr %25, align 8, !tbaa !181
  %27 = icmp ne ptr %26, null
  br i1 %27, label %28, label %32

28:                                               ; preds = %23
  %29 = load ptr, ptr %6, align 8, !tbaa !45
  %30 = getelementptr inbounds nuw %struct.zsetopval, ptr %29, i32 0, i32 2
  %31 = load ptr, ptr %30, align 8, !tbaa !181
  br label %36

32:                                               ; preds = %23
  %33 = load ptr, ptr %6, align 8, !tbaa !45
  %34 = getelementptr inbounds nuw %struct.zsetopval, ptr %33, i32 0, i32 3
  %35 = load ptr, ptr %34, align 8, !tbaa !184
  br label %36

36:                                               ; preds = %32, %28
  %37 = phi ptr [ %31, %28 ], [ %35, %32 ]
  store ptr %37, ptr %8, align 8, !tbaa !11
  call void @llvm.lifetime.start.p0(i64 8, ptr %9) #12
  %38 = load ptr, ptr %6, align 8, !tbaa !45
  %39 = getelementptr inbounds nuw %struct.zsetopval, ptr %38, i32 0, i32 2
  %40 = load ptr, ptr %39, align 8, !tbaa !181
  %41 = icmp ne ptr %40, null
  br i1 %41, label %42, label %47

42:                                               ; preds = %36
  %43 = load ptr, ptr %6, align 8, !tbaa !45
  %44 = getelementptr inbounds nuw %struct.zsetopval, ptr %43, i32 0, i32 2
  %45 = load ptr, ptr %44, align 8, !tbaa !181
  %46 = call i64 @sdslen(ptr noundef %45)
  br label %52

47:                                               ; preds = %36
  %48 = load ptr, ptr %6, align 8, !tbaa !45
  %49 = getelementptr inbounds nuw %struct.zsetopval, ptr %48, i32 0, i32 4
  %50 = load i32, ptr %49, align 8, !tbaa !185
  %51 = zext i32 %50 to i64
  br label %52

52:                                               ; preds = %47, %42
  %53 = phi i64 [ %46, %42 ], [ %51, %47 ]
  store i64 %53, ptr %9, align 8, !tbaa !31
  %54 = load ptr, ptr %5, align 8, !tbaa !45
  %55 = getelementptr inbounds nuw %struct.zsetopsrc, ptr %54, i32 0, i32 0
  %56 = load ptr, ptr %55, align 8, !tbaa !171
  %57 = load ptr, ptr %8, align 8, !tbaa !11
  %58 = load i64, ptr %9, align 8, !tbaa !31
  %59 = load ptr, ptr %6, align 8, !tbaa !45
  %60 = getelementptr inbounds nuw %struct.zsetopval, ptr %59, i32 0, i32 5
  %61 = load i64, ptr %60, align 8, !tbaa !182
  %62 = load ptr, ptr %6, align 8, !tbaa !45
  %63 = getelementptr inbounds nuw %struct.zsetopval, ptr %62, i32 0, i32 2
  %64 = load ptr, ptr %63, align 8, !tbaa !181
  %65 = icmp ne ptr %64, null
  %66 = zext i1 %65 to i32
  %67 = call i32 @setTypeIsMemberAux(ptr noundef %56, ptr noundef %57, i64 noundef %58, i64 noundef %61, i32 noundef %66)
  %68 = icmp ne i32 %67, 0
  br i1 %68, label %69, label %71

69:                                               ; preds = %52
  %70 = load ptr, ptr %7, align 8, !tbaa !105
  store double 1.000000e+00, ptr %70, align 8, !tbaa !9
  store i32 1, ptr %4, align 4
  store i32 1, ptr %10, align 4
  br label %72

71:                                               ; preds = %52
  store i32 0, ptr %4, align 4
  store i32 1, ptr %10, align 4
  br label %72

72:                                               ; preds = %71, %69
  call void @llvm.lifetime.end.p0(i64 8, ptr %9) #12
  call void @llvm.lifetime.end.p0(i64 8, ptr %8) #12
  br label %127

73:                                               ; preds = %18
  %74 = load ptr, ptr %5, align 8, !tbaa !45
  %75 = getelementptr inbounds nuw %struct.zsetopsrc, ptr %74, i32 0, i32 1
  %76 = load i32, ptr %75, align 8, !tbaa !173
  %77 = icmp eq i32 %76, 3
  br i1 %77, label %78, label %126

78:                                               ; preds = %73
  %79 = load ptr, ptr %6, align 8, !tbaa !45
  %80 = call ptr @zuiSdsFromValue(ptr noundef %79)
  %81 = load ptr, ptr %5, align 8, !tbaa !45
  %82 = getelementptr inbounds nuw %struct.zsetopsrc, ptr %81, i32 0, i32 2
  %83 = load i32, ptr %82, align 4, !tbaa !176
  %84 = icmp eq i32 %83, 11
  br i1 %84, label %85, label %99

85:                                               ; preds = %78
  %86 = load ptr, ptr %5, align 8, !tbaa !45
  %87 = getelementptr inbounds nuw %struct.zsetopsrc, ptr %86, i32 0, i32 0
  %88 = load ptr, ptr %87, align 8, !tbaa !171
  %89 = getelementptr inbounds nuw %struct.redisObject, ptr %88, i32 0, i32 2
  %90 = load ptr, ptr %89, align 8, !tbaa !84
  %91 = load ptr, ptr %6, align 8, !tbaa !45
  %92 = getelementptr inbounds nuw %struct.zsetopval, ptr %91, i32 0, i32 2
  %93 = load ptr, ptr %92, align 8, !tbaa !181
  %94 = load ptr, ptr %7, align 8, !tbaa !105
  %95 = call ptr @zzlFind(ptr noundef %90, ptr noundef %93, ptr noundef %94)
  %96 = icmp ne ptr %95, null
  br i1 %96, label %97, label %98

97:                                               ; preds = %85
  store i32 1, ptr %4, align 4
  br label %127

98:                                               ; preds = %85
  store i32 0, ptr %4, align 4
  br label %127

99:                                               ; preds = %78
  %100 = load ptr, ptr %5, align 8, !tbaa !45
  %101 = getelementptr inbounds nuw %struct.zsetopsrc, ptr %100, i32 0, i32 2
  %102 = load i32, ptr %101, align 4, !tbaa !176
  %103 = icmp eq i32 %102, 7
  br i1 %103, label %104, label %125

104:                                              ; preds = %99
  call void @llvm.lifetime.start.p0(i64 8, ptr %11) #12
  %105 = load ptr, ptr %5, align 8, !tbaa !45
  %106 = getelementptr inbounds nuw %struct.zsetopsrc, ptr %105, i32 0, i32 0
  %107 = load ptr, ptr %106, align 8, !tbaa !171
  %108 = getelementptr inbounds nuw %struct.redisObject, ptr %107, i32 0, i32 2
  %109 = load ptr, ptr %108, align 8, !tbaa !84
  store ptr %109, ptr %11, align 8, !tbaa !137
  call void @llvm.lifetime.start.p0(i64 8, ptr %12) #12
  %110 = load ptr, ptr %11, align 8, !tbaa !137
  %111 = getelementptr inbounds nuw %struct.zset, ptr %110, i32 0, i32 0
  %112 = load ptr, ptr %111, align 8, !tbaa !139
  %113 = load ptr, ptr %6, align 8, !tbaa !45
  %114 = getelementptr inbounds nuw %struct.zsetopval, ptr %113, i32 0, i32 2
  %115 = load ptr, ptr %114, align 8, !tbaa !181
  %116 = call ptr @dictFind(ptr noundef %112, ptr noundef %115)
  store ptr %116, ptr %12, align 8, !tbaa !142
  %117 = icmp ne ptr %116, null
  br i1 %117, label %118, label %123

118:                                              ; preds = %104
  %119 = load ptr, ptr %12, align 8, !tbaa !142
  %120 = call ptr @dictGetVal(ptr noundef %119)
  %121 = load double, ptr %120, align 8, !tbaa !9
  %122 = load ptr, ptr %7, align 8, !tbaa !105
  store double %121, ptr %122, align 8, !tbaa !9
  store i32 1, ptr %4, align 4
  store i32 1, ptr %10, align 4
  br label %124

123:                                              ; preds = %104
  store i32 0, ptr %4, align 4
  store i32 1, ptr %10, align 4
  br label %124

124:                                              ; preds = %123, %118
  call void @llvm.lifetime.end.p0(i64 8, ptr %12) #12
  call void @llvm.lifetime.end.p0(i64 8, ptr %11) #12
  br label %127

125:                                              ; preds = %99
  call void (ptr, i32, ptr, ...) @_serverPanic(ptr noundef @.str.1, i32 noundef 2388, ptr noundef @.str.9)
  call void @abort() #14
  unreachable

126:                                              ; preds = %73
  call void (ptr, i32, ptr, ...) @_serverPanic(ptr noundef @.str.1, i32 noundef 2391, ptr noundef @.str.39)
  call void @abort() #14
  unreachable

127:                                              ; preds = %124, %98, %97, %72, %17
  %128 = load i32, ptr %4, align 4
  ret i32 %128
}