; Function Attrs: nounwind uwtable
define dso_local range(i32 0, 2) i32 @zuiFind(ptr noundef readonly captures(none) %0, ptr noundef captures(none) %1, ptr noundef captures(address_is_null) %2) local_unnamed_addr #0 {
  %4 = load ptr, ptr %0, align 8, !tbaa !157
  %5 = icmp eq ptr %4, null
  br i1 %5, label %87, label %6

6:                                                ; preds = %3
  %7 = getelementptr inbounds nuw i8, ptr %0, i64 8
  %8 = load i32, ptr %7, align 8, !tbaa !159
  switch i32 %8, label %86 [
    i32 2, label %9
    i32 3, label %49
  ]

9:                                                ; preds = %6
  %10 = getelementptr inbounds nuw i8, ptr %1, i64 40
  %11 = load ptr, ptr %10, align 8, !tbaa !163
  %.not32 = icmp eq ptr %11, null
  br i1 %.not32, label %35, label %12

12:                                               ; preds = %9
  %13 = getelementptr inbounds i8, ptr %11, i64 -1
  %14 = load i8, ptr %13, align 1, !tbaa !77
  %15 = zext i8 %14 to i32
  %16 = and i32 %15, 7
  switch i32 %16, label %sdslen.exit [
    i32 0, label %17
    i32 1, label %20
    i32 2, label %24
    i32 3, label %28
    i32 4, label %32
  ]

17:                                               ; preds = %12
  %18 = lshr i32 %15, 3
  %19 = zext nneg i32 %18 to i64
  br label %sdslen.exit

20:                                               ; preds = %12
  %21 = getelementptr inbounds i8, ptr %11, i64 -3
  %22 = load i8, ptr %21, align 1, !tbaa !77
  %23 = zext i8 %22 to i64
  br label %sdslen.exit

24:                                               ; preds = %12
  %25 = getelementptr inbounds i8, ptr %11, i64 -5
  %26 = load i16, ptr %25, align 1, !tbaa !79
  %27 = zext i16 %26 to i64
  br label %sdslen.exit

28:                                               ; preds = %12
  %29 = getelementptr inbounds i8, ptr %11, i64 -9
  %30 = load i32, ptr %29, align 1, !tbaa !78
  %31 = zext i32 %30 to i64
  br label %sdslen.exit

32:                                               ; preds = %12
  %33 = getelementptr inbounds i8, ptr %11, i64 -17
  %34 = load i64, ptr %33, align 1, !tbaa !26
  br label %sdslen.exit

35:                                               ; preds = %9
  %36 = getelementptr inbounds nuw i8, ptr %1, i64 48
  %37 = load ptr, ptr %36, align 8, !tbaa !166
  %38 = getelementptr inbounds nuw i8, ptr %1, i64 56
  %39 = load i32, ptr %38, align 8, !tbaa !167
  %40 = zext i32 %39 to i64
  br label %sdslen.exit

sdslen.exit:                                      ; preds = %32, %28, %24, %20, %17, %12, %35
  %41 = phi ptr [ %37, %35 ], [ %11, %12 ], [ %11, %17 ], [ %11, %20 ], [ %11, %24 ], [ %11, %28 ], [ %11, %32 ]
  %42 = phi i64 [ %40, %35 ], [ 0, %12 ], [ %19, %17 ], [ %23, %20 ], [ %27, %24 ], [ %31, %28 ], [ %34, %32 ]
  %43 = getelementptr inbounds nuw i8, ptr %1, i64 64
  %44 = load i64, ptr %43, align 8, !tbaa !164
  %45 = icmp ne ptr %11, null
  %46 = zext i1 %45 to i32
  %47 = tail call i32 @setTypeIsMemberAux(ptr noundef nonnull %4, ptr noundef %41, i64 noundef %42, i64 noundef %44, i32 noundef %46) #18
  %.not34 = icmp eq i32 %47, 0
  br i1 %.not34, label %87, label %48

48:                                               ; preds = %sdslen.exit
  store double 1.000000e+00, ptr %2, align 8, !tbaa !5
  br label %87

49:                                               ; preds = %6
  %50 = getelementptr inbounds nuw i8, ptr %1, i64 40
  %51 = load ptr, ptr %50, align 8, !tbaa !163
  %52 = icmp eq ptr %51, null
  br i1 %52, label %53, label %zuiSdsFromValue.exit

53:                                               ; preds = %49
  %54 = getelementptr inbounds nuw i8, ptr %1, i64 48
  %55 = load ptr, ptr %54, align 8, !tbaa !166
  %.not.i = icmp eq ptr %55, null
  br i1 %.not.i, label %61, label %56

56:                                               ; preds = %53
  %57 = getelementptr inbounds nuw i8, ptr %1, i64 56
  %58 = load i32, ptr %57, align 8, !tbaa !167
  %59 = zext i32 %58 to i64
  %60 = tail call ptr @sdsnewlen(ptr noundef nonnull %55, i64 noundef %59) #18
  br label %65

61:                                               ; preds = %53
  %62 = getelementptr inbounds nuw i8, ptr %1, i64 64
  %63 = load i64, ptr %62, align 8, !tbaa !164
  %64 = tail call ptr @sdsfromlonglong(i64 noundef %63) #18
  br label %65

65:                                               ; preds = %61, %56
  %storemerge.i = phi ptr [ %64, %61 ], [ %60, %56 ]
  store ptr %storemerge.i, ptr %50, align 8, !tbaa !163
  %66 = load i32, ptr %1, align 8, !tbaa !161
  %67 = or i32 %66, 1
  store i32 %67, ptr %1, align 8, !tbaa !161
  br label %zuiSdsFromValue.exit

zuiSdsFromValue.exit:                             ; preds = %49, %65
  %68 = phi ptr [ %51, %49 ], [ %storemerge.i, %65 ]
  %69 = getelementptr inbounds nuw i8, ptr %0, i64 12
  %70 = load i32, ptr %69, align 4, !tbaa !160
  switch i32 %70, label %85 [
    i32 11, label %71
    i32 7, label %76
  ]

71:                                               ; preds = %zuiSdsFromValue.exit
  %72 = load ptr, ptr %0, align 8, !tbaa !157
  %73 = getelementptr inbounds nuw i8, ptr %72, i64 8
  %74 = load ptr, ptr %73, align 8, !tbaa !75
  %75 = tail call ptr @zzlFind(ptr noundef %74, ptr noundef %68, ptr noundef %2)
  %.not31 = icmp ne ptr %75, null
  %. = zext i1 %.not31 to i32
  br label %87

76:                                               ; preds = %zuiSdsFromValue.exit
  %77 = load ptr, ptr %0, align 8, !tbaa !157
  %78 = getelementptr inbounds nuw i8, ptr %77, i64 8
  %79 = load ptr, ptr %78, align 8, !tbaa !75
  %80 = load ptr, ptr %79, align 8, !tbaa !125
  %81 = tail call ptr @dictFind(ptr noundef %80, ptr noundef %68) #18
  %.not = icmp eq ptr %81, null
  br i1 %.not, label %87, label %82

82:                                               ; preds = %76
  %83 = tail call ptr @dictGetVal(ptr noundef nonnull %81) #18
  %84 = load double, ptr %83, align 8, !tbaa !5
  store double %84, ptr %2, align 8, !tbaa !5
  br label %87

85:                                               ; preds = %zuiSdsFromValue.exit
  tail call void (ptr, i32, ptr, ...) @_serverPanic(ptr noundef nonnull @.str.1, i32 noundef 2388, ptr noundef nonnull @.str.9) #18
  tail call void @abort() #19
  unreachable

86:                                               ; preds = %6
  tail call void (ptr, i32, ptr, ...) @_serverPanic(ptr noundef nonnull @.str.1, i32 noundef 2391, ptr noundef nonnull @.str.39) #18
  tail call void @abort() #19
  unreachable

87:                                               ; preds = %82, %76, %71, %48, %sdslen.exit, %3
  %.0 = phi i32 [ 0, %3 ], [ 1, %48 ], [ 0, %sdslen.exit ], [ %., %71 ], [ 1, %82 ], [ 0, %76 ]
  ret i32 %.0
}